target datalayout = "e-m:e-p270:32:32-p271:32:32-p272:64:64-i64:64-i128:128-f80:128-n8:16:32:64-S128"
target triple = "x86_64-pc-linux-gnu"

%"class.std::__cxx11::basic_string" = type { %"struct.std::__cxx11::basic_string<char>::_Alloc_hider", i64, %union.anon }
%"struct.std::__cxx11::basic_string<char>::_Alloc_hider" = type { ptr }
%union.anon = type { i64, [8 x i8] }
%"class.pxrInternal_v0_24__pxrReserved__::TfHashMap" = type { %"class.std::unordered_map" }
%"class.std::unordered_map" = type { %"class.std::_Hashtable" }
%"class.std::_Hashtable" = type { ptr, i64, %"struct.std::__detail::_Hash_node_base", i64, %"struct.std::__detail::_Prime_rehash_policy", ptr }
%"struct.std::__detail::_Hash_node_base" = type { ptr }
%"struct.std::__detail::_Prime_rehash_policy" = type { float, i64 }
%"struct.pxrInternal_v0_24__pxrReserved__::TfType::_TypeInfo" = type <{ %"class.pxrInternal_v0_24__pxrReserved__::TfType", %"class.std::__cxx11::basic_string", ptr, %"struct.std::atomic.58", i64, %"class.std::vector", %"class.std::vector", %"class.std::unique_ptr.63", %"class.std::optional", %"class.std::optional.73", %"class.std::vector.101", %"class.std::unique_ptr.106", i8, i8, i8, [5 x i8] }>
%"class.pxrInternal_v0_24__pxrReserved__::TfType" = type { ptr }
%"struct.std::atomic.58" = type { %"struct.std::__atomic_base.59" }
%"struct.std::__atomic_base.59" = type { ptr }
%"class.std::vector" = type { %"struct.std::_Vector_base" }
%"struct.std::_Vector_base" = type { %"struct.std::_Vector_base<pxrInternal_v0_24__pxrReserved__::TfType, std::allocator<pxrInternal_v0_24__pxrReserved__::TfType>>::_Vector_impl" }
%"struct.std::_Vector_base<pxrInternal_v0_24__pxrReserved__::TfType, std::allocator<pxrInternal_v0_24__pxrReserved__::TfType>>::_Vector_impl" = type { %"struct.std::_Vector_base<pxrInternal_v0_24__pxrReserved__::TfType, std::allocator<pxrInternal_v0_24__pxrReserved__::TfType>>::_Vector_impl_data" }
%"struct.std::_Vector_base<pxrInternal_v0_24__pxrReserved__::TfType, std::allocator<pxrInternal_v0_24__pxrReserved__::TfType>>::_Vector_impl_data" = type { ptr, ptr, ptr }
%"class.std::unique_ptr.63" = type { %"struct.std::__uniq_ptr_data.64" }
%"struct.std::__uniq_ptr_data.64" = type { %"class.std::__uniq_ptr_impl.65" }
%"class.std::__uniq_ptr_impl.65" = type { %"class.std::tuple.66" }
%"class.std::tuple.66" = type { %"struct.std::_Tuple_impl.67" }
%"struct.std::_Tuple_impl.67" = type { %"struct.std::_Head_base.70" }
%"struct.std::_Head_base.70" = type { ptr }
%"class.std::optional" = type { %"struct.std::_Optional_base" }
%"struct.std::_Optional_base" = type { %"struct.std::_Optional_payload" }
%"struct.std::_Optional_payload" = type { %"struct.std::_Optional_payload.base", [7 x i8] }
%"struct.std::_Optional_payload.base" = type { %"struct.std::_Optional_payload_base.base" }
%"struct.std::_Optional_payload_base.base" = type <{ %"union.std::_Optional_payload_base<pxrInternal_v0_24__pxrReserved__::TfHashMap<std::__cxx11::basic_string<char>, pxrInternal_v0_24__pxrReserved__::TfType::_TypeInfo *, pxrInternal_v0_24__pxrReserved__::TfHash>>::_Storage", i8 }>
%"union.std::_Optional_payload_base<pxrInternal_v0_24__pxrReserved__::TfHashMap<std::__cxx11::basic_string<char>, pxrInternal_v0_24__pxrReserved__::TfType::_TypeInfo *, pxrInternal_v0_24__pxrReserved__::TfHash>>::_Storage" = type { %"class.pxrInternal_v0_24__pxrReserved__::TfHashMap" }
%"class.std::optional.73" = type { %"struct.std::_Optional_base.74" }
%"struct.std::_Optional_base.74" = type { %"struct.std::_Optional_payload.76" }
%"struct.std::_Optional_payload.76" = type { %"struct.std::_Optional_payload.base.98", [7 x i8] }
%"struct.std::_Optional_payload.base.98" = type { %"struct.std::_Optional_payload_base.base.97" }
%"struct.std::_Optional_payload_base.base.97" = type <{ %"union.std::_Optional_payload_base<pxrInternal_v0_24__pxrReserved__::TfHashMap<pxrInternal_v0_24__pxrReserved__::TfType::_TypeInfo *, std::vector<std::__cxx11::basic_string<char>>, pxrInternal_v0_24__pxrReserved__::TfHash>>::_Storage", i8 }>
%"union.std::_Optional_payload_base<pxrInternal_v0_24__pxrReserved__::TfHashMap<pxrInternal_v0_24__pxrReserved__::TfType::_TypeInfo *, std::vector<std::__cxx11::basic_string<char>>, pxrInternal_v0_24__pxrReserved__::TfHash>>::_Storage" = type { %"class.pxrInternal_v0_24__pxrReserved__::TfHashMap.79" }
%"class.pxrInternal_v0_24__pxrReserved__::TfHashMap.79" = type { %"class.std::unordered_map.80" }
%"class.std::unordered_map.80" = type { %"class.std::_Hashtable.81" }
%"class.std::_Hashtable.81" = type { ptr, i64, %"struct.std::__detail::_Hash_node_base", i64, %"struct.std::__detail::_Prime_rehash_policy", ptr }
%"class.std::vector.101" = type { %"struct.std::_Vector_base.102" }
%"struct.std::_Vector_base.102" = type { %"struct.std::_Vector_base<std::pair<const std::type_info *, void *(*)(void *, bool)>, std::allocator<std::pair<const std::type_info *, void *(*)(void *, bool)>>>::_Vector_impl" }
%"struct.std::_Vector_base<std::pair<const std::type_info *, void *(*)(void *, bool)>, std::allocator<std::pair<const std::type_info *, void *(*)(void *, bool)>>>::_Vector_impl" = type { %"struct.std::_Vector_base<std::pair<const std::type_info *, void *(*)(void *, bool)>, std::allocator<std::pair<const std::type_info *, void *(*)(void *, bool)>>>::_Vector_impl_data" }
%"struct.std::_Vector_base<std::pair<const std::type_info *, void *(*)(void *, bool)>, std::allocator<std::pair<const std::type_info *, void *(*)(void *, bool)>>>::_Vector_impl_data" = type { ptr, ptr, ptr }
%"class.std::unique_ptr.106" = type { %"struct.std::__uniq_ptr_data.107" }
%"struct.std::__uniq_ptr_data.107" = type { %"class.std::__uniq_ptr_impl.108" }
%"class.std::__uniq_ptr_impl.108" = type { %"class.std::tuple.109" }
%"class.std::tuple.109" = type { %"struct.std::_Tuple_impl.110" }
%"struct.std::_Tuple_impl.110" = type { %"struct.std::_Head_base.113" }
%"struct.std::_Head_base.113" = type { ptr }

; Function Attrs: mustprogress nounwind uwtable
define linkonce_odr noundef nonnull align 8 dereferenceable(8) ptr @_ZNSt6vectorIN32pxrInternal_v0_24__pxrReserved__6TfTypeESaIS1_EEixEm(ptr noundef nonnull align 8 dereferenceable(24) %0, i64 noundef %1) #5 comdat align 2 {
  %3 = alloca ptr, align 8
  %4 = alloca i64, align 8
  store ptr %0, ptr %3, align 8
  store i64 %1, ptr %4, align 8
  %5 = load ptr, ptr %3, align 8
  %6 = getelementptr inbounds nuw %"struct.std::_Vector_base", ptr %5, i32 0, i32 0
  %7 = getelementptr inbounds nuw %"struct.std::_Vector_base<pxrInternal_v0_24__pxrReserved__::TfType, std::allocator<pxrInternal_v0_24__pxrReserved__::TfType>>::_Vector_impl_data", ptr %6, i32 0, i32 0
  %8 = load ptr, ptr %7, align 8
  %9 = load i64, ptr %4, align 8
  %10 = getelementptr inbounds %"class.pxrInternal_v0_24__pxrReserved__::TfType", ptr %8, i64 %9
  ret ptr %10
}

; Function Attrs: mustprogress nounwind uwtable
define linkonce_odr noundef i64 @_ZNKSt6vectorIN32pxrInternal_v0_24__pxrReserved__6TfTypeESaIS1_EE4sizeEv(ptr noundef nonnull align 8 dereferenceable(24) %0) #5 comdat align 2 {
  %2 = alloca ptr, align 8
  store ptr %0, ptr %2, align 8
  %3 = load ptr, ptr %2, align 8
  %4 = getelementptr inbounds nuw %"struct.std::_Vector_base", ptr %3, i32 0, i32 0
  %5 = getelementptr inbounds nuw %"struct.std::_Vector_base<pxrInternal_v0_24__pxrReserved__::TfType, std::allocator<pxrInternal_v0_24__pxrReserved__::TfType>>::_Vector_impl_data", ptr %4, i32 0, i32 1
  %6 = load ptr, ptr %5, align 8
  %7 = getelementptr inbounds nuw %"struct.std::_Vector_base", ptr %3, i32 0, i32 0
  %8 = getelementptr inbounds nuw %"struct.std::_Vector_base<pxrInternal_v0_24__pxrReserved__::TfType, std::allocator<pxrInternal_v0_24__pxrReserved__::TfType>>::_Vector_impl_data", ptr %7, i32 0, i32 0
  %9 = load ptr, ptr %8, align 8
  %10 = ptrtoint ptr %6 to i64
  %11 = ptrtoint ptr %9 to i64
  %12 = sub i64 %10, %11
  %13 = sdiv exact i64 %12, 8
  ret i64 %13
}

; Function Attrs: mustprogress nounwind uwtable
define linkonce_odr noundef zeroext i1 @_ZNK32pxrInternal_v0_24__pxrReserved__6TfTypeeqERKS0_(ptr noundef nonnull align 8 dereferenceable(8) %0, ptr noundef nonnull align 8 dereferenceable(8) %1) #5 comdat align 2 {
  %3 = alloca ptr, align 8
  %4 = alloca ptr, align 8
  store ptr %0, ptr %3, align 8
  store ptr %1, ptr %4, align 8
  %5 = load ptr, ptr %3, align 8
  %6 = getelementptr inbounds nuw %"class.pxrInternal_v0_24__pxrReserved__::TfType", ptr %5, i32 0, i32 0
  %7 = load ptr, ptr %6, align 8
  %8 = load ptr, ptr %4, align 8
  %9 = getelementptr inbounds nuw %"class.pxrInternal_v0_24__pxrReserved__::TfType", ptr %8, i32 0, i32 0
  %10 = load ptr, ptr %9, align 8
  %11 = icmp eq ptr %7, %10
  ret i1 %11
}

; Function Attrs: mustprogress uwtable
define noundef zeroext i1 @_ZNK32pxrInternal_v0_24__pxrReserved__6TfType14_IsAImplNoLockES0_(ptr noundef nonnull align 8 dereferenceable(8) %0, ptr %1) #4 align 2 {
  %3 = alloca i1, align 1
  %4 = alloca %"class.pxrInternal_v0_24__pxrReserved__::TfType", align 8
  %5 = alloca ptr, align 8
  %6 = alloca %"class.pxrInternal_v0_24__pxrReserved__::TfType", align 8
  %7 = alloca i64, align 8
  %8 = alloca %"class.pxrInternal_v0_24__pxrReserved__::TfType", align 8
  %9 = getelementptr inbounds nuw %"class.pxrInternal_v0_24__pxrReserved__::TfType", ptr %4, i32 0, i32 0
  store ptr %1, ptr %9, align 8
  store ptr %0, ptr %5, align 8
  %10 = load ptr, ptr %5, align 8
  call void @llvm.memcpy.p0.p0.i64(ptr align 8 %6, ptr align 8 %10, i64 8, i1 false)
  br label %11

11:                                               ; preds = %20, %2
  %12 = call noundef zeroext i1 @_ZNK32pxrInternal_v0_24__pxrReserved__6TfTypeeqERKS0_(ptr noundef nonnull align 8 dereferenceable(8) %6, ptr noundef nonnull align 8 dereferenceable(8) %4)
  br i1 %12, label %13, label %14

13:                                               ; preds = %11
  store i1 true, ptr %3, align 1
  br label %48

14:                                               ; preds = %11
  %15 = getelementptr inbounds nuw %"class.pxrInternal_v0_24__pxrReserved__::TfType", ptr %6, i32 0, i32 0
  %16 = load ptr, ptr %15, align 8
  %17 = getelementptr inbounds nuw %"struct.pxrInternal_v0_24__pxrReserved__::TfType::_TypeInfo", ptr %16, i32 0, i32 5
  %18 = call noundef i64 @_ZNKSt6vectorIN32pxrInternal_v0_24__pxrReserved__6TfTypeESaIS1_EE4sizeEv(ptr noundef nonnull align 8 dereferenceable(24) %17) #3
  %19 = icmp eq i64 %18, 1
  br i1 %19, label %20, label %25

20:                                               ; preds = %14
  %21 = getelementptr inbounds nuw %"class.pxrInternal_v0_24__pxrReserved__::TfType", ptr %6, i32 0, i32 0
  %22 = load ptr, ptr %21, align 8
  %23 = getelementptr inbounds nuw %"struct.pxrInternal_v0_24__pxrReserved__::TfType::_TypeInfo", ptr %22, i32 0, i32 5
  %24 = call noundef nonnull align 8 dereferenceable(8) ptr @_ZNSt6vectorIN32pxrInternal_v0_24__pxrReserved__6TfTypeESaIS1_EEixEm(ptr noundef nonnull align 8 dereferenceable(24) %23, i64 noundef 0) #3
  call void @llvm.memcpy.p0.p0.i64(ptr align 8 %6, ptr align 8 %24, i64 8, i1 false)
  br label %11, !llvm.loop !15

25:                                               ; preds = %14
  store i64 0, ptr %7, align 8
  br label %26

26:                                               ; preds = %44, %25
  %27 = load i64, ptr %7, align 8
  %28 = getelementptr inbounds nuw %"class.pxrInternal_v0_24__pxrReserved__::TfType", ptr %6, i32 0, i32 0
  %29 = load ptr, ptr %28, align 8
  %30 = getelementptr inbounds nuw %"struct.pxrInternal_v0_24__pxrReserved__::TfType::_TypeInfo", ptr %29, i32 0, i32 5
  %31 = call noundef i64 @_ZNKSt6vectorIN32pxrInternal_v0_24__pxrReserved__6TfTypeESaIS1_EE4sizeEv(ptr noundef nonnull align 8 dereferenceable(24) %30) #3
  %32 = icmp ne i64 %27, %31
  br i1 %32, label %33, label %47

33:                                               ; preds = %26
  %34 = getelementptr inbounds nuw %"class.pxrInternal_v0_24__pxrReserved__::TfType", ptr %6, i32 0, i32 0
  %35 = load ptr, ptr %34, align 8
  %36 = getelementptr inbounds nuw %"struct.pxrInternal_v0_24__pxrReserved__::TfType::_TypeInfo", ptr %35, i32 0, i32 5
  %37 = load i64, ptr %7, align 8
  %38 = call noundef nonnull align 8 dereferenceable(8) ptr @_ZNSt6vectorIN32pxrInternal_v0_24__pxrReserved__6TfTypeESaIS1_EEixEm(ptr noundef nonnull align 8 dereferenceable(24) %36, i64 noundef %37) #3
  call void @llvm.memcpy.p0.p0.i64(ptr align 8 %8, ptr align 8 %4, i64 8, i1 false)
  %39 = getelementptr inbounds nuw %"class.pxrInternal_v0_24__pxrReserved__::TfType", ptr %8, i32 0, i32 0
  %40 = load ptr, ptr %39, align 8
  %41 = call noundef zeroext i1 @_ZNK32pxrInternal_v0_24__pxrReserved__6TfType14_IsAImplNoLockES0_(ptr noundef nonnull align 8 dereferenceable(8) %38, ptr %40)
  br i1 %41, label %42, label %43

42:                                               ; preds = %33
  store i1 true, ptr %3, align 1
  br label %48

43:                                               ; preds = %33
  br label %44

44:                                               ; preds = %43
  %45 = load i64, ptr %7, align 8
  %46 = add i64 %45, 1
  store i64 %46, ptr %7, align 8
  br label %26, !llvm.loop !16

47:                                               ; preds = %26
  store i1 false, ptr %3, align 1
  br label %48

48:                                               ; preds = %47, %42, %13
  %49 = load i1, ptr %3, align 1
  ret i1 %49
}