; Function Attrs: mustprogress nofree nosync nounwind willreturn memory(read, inaccessiblemem: none) uwtable
define noundef zeroext i1 @_ZNK32pxrInternal_v0_24__pxrReserved__6TfType14_IsAImplNoLockES0_(ptr noundef nonnull readonly align 8 captures(none) dereferenceable(8) %0, ptr %1) local_unnamed_addr #15 align 2 {
  br label %3

3:                                                ; preds = %6, %2
  %storemerge.in = phi ptr [ %0, %2 ], [ %10, %6 ]
  %storemerge = load i64, ptr %storemerge.in, align 8
  %4 = inttoptr i64 %storemerge to ptr
  %5 = icmp eq ptr %1, %4
  br i1 %5, label %.loopexit, label %6

6:                                                ; preds = %3
  %7 = getelementptr inbounds nuw i8, ptr %4, i64 64
  %8 = getelementptr inbounds nuw i8, ptr %4, i64 72
  %9 = load ptr, ptr %8, align 8
  %10 = load ptr, ptr %7, align 8
  %11 = ptrtoint ptr %9 to i64
  %12 = ptrtoint ptr %10 to i64
  %13 = sub i64 %11, %12
  %14 = icmp eq i64 %13, 8
  br i1 %14, label %3, label %.preheader, !llvm.loop !49

.preheader:                                       ; preds = %6
  %15 = ashr exact i64 %13, 3
  %.not13 = icmp eq ptr %9, %10
  br i1 %.not13, label %.loopexit, label %.lr.ph

.lr.ph:                                           ; preds = %.preheader, %.lr.ph
  %.0414 = phi i64 [ %18, %.lr.ph ], [ 0, %.preheader ]
  %16 = getelementptr inbounds %"class.pxrInternal_v0_24__pxrReserved__::TfType", ptr %10, i64 %.0414
  %17 = tail call noundef zeroext i1 @_ZNK32pxrInternal_v0_24__pxrReserved__6TfType14_IsAImplNoLockES0_(ptr noundef nonnull align 8 dereferenceable(8) %16, ptr %1)
  %18 = add i64 %.0414, 1
  %.not = icmp eq i64 %18, %15
  %or.cond = select i1 %17, i1 true, i1 %.not
  br i1 %or.cond, label %.loopexit, label %.lr.ph, !llvm.loop !50

.loopexit:                                        ; preds = %3, %.lr.ph, %.preheader
  %.0 = phi i1 [ false, %.preheader ], [ %17, %.lr.ph ], [ true, %3 ]
  ret i1 %.0
}